target datalayout = "e-m:e-p270:32:32-p271:32:32-p272:64:64-i64:64-i128:128-f80:128-n8:16:32:64-S128"
target triple = "x86_64-pc-linux-gnu"

%struct.pmix_object_t = type { %union.pthread_mutex_t, ptr, i32, %struct.pmix_tma }
%union.pthread_mutex_t = type { %struct.__pthread_mutex_s }
%struct.__pthread_mutex_s = type { i32, i32, i32, i32, i32, i16, i16, %struct.__pthread_internal_list }
%struct.__pthread_internal_list = type { ptr, ptr }
%struct.pmix_tma = type { ptr, ptr, ptr, ptr, ptr, ptr, ptr, ptr }
%struct.pmix_list_item_t = type { %struct.pmix_object_t, ptr, ptr, i32 }
%struct.timeval = type { i64, i64 }
%struct.event = type { %struct.event_callback, %union.anon.0, i32, ptr, %union.anon.2, i16, i16, %struct.timeval }
%struct.event_callback = type { %struct.anon, i16, i8, i8, %union.anon, ptr }
%struct.anon = type { ptr, ptr }
%union.anon = type { ptr }
%union.anon.0 = type { %struct.anon.1 }
%struct.anon.1 = type { ptr, ptr }
%union.anon.2 = type { %struct.anon.3 }
%struct.anon.3 = type { %struct.anon.4, %struct.timeval }
%struct.anon.4 = type { ptr, ptr }
%struct.file_tracker_t = type { %struct.pmix_list_item_t, ptr, ptr, i8, %struct.event, %struct.event, %struct.timeval, i32, ptr, i8, i8, i8, i64, i64, i64, i32, i32, i32, i8, ptr, i64 }

; Function Attrs: nounwind uwtable
define internal void @ft_constructor(ptr noundef %0) #0 {
  %2 = alloca ptr, align 8
  store ptr %0, ptr %2, align 8, !tbaa !57
  %3 = load ptr, ptr %2, align 8, !tbaa !57
  %4 = getelementptr inbounds nuw %struct.file_tracker_t, ptr %3, i32 0, i32 1
  store ptr null, ptr %4, align 8, !tbaa !58
  %5 = load ptr, ptr %2, align 8, !tbaa !57
  %6 = getelementptr inbounds nuw %struct.file_tracker_t, ptr %5, i32 0, i32 2
  store ptr null, ptr %6, align 8, !tbaa !81
  %7 = load ptr, ptr %2, align 8, !tbaa !57
  %8 = getelementptr inbounds nuw %struct.file_tracker_t, ptr %7, i32 0, i32 3
  store i8 0, ptr %8, align 8, !tbaa !82
  %9 = load ptr, ptr %2, align 8, !tbaa !57
  %10 = getelementptr inbounds nuw %struct.file_tracker_t, ptr %9, i32 0, i32 6
  %11 = getelementptr inbounds nuw %struct.timeval, ptr %10, i32 0, i32 0
  store i64 0, ptr %11, align 8, !tbaa !66
  %12 = load ptr, ptr %2, align 8, !tbaa !57
  %13 = getelementptr inbounds nuw %struct.file_tracker_t, ptr %12, i32 0, i32 6
  %14 = getelementptr inbounds nuw %struct.timeval, ptr %13, i32 0, i32 1
  store i64 0, ptr %14, align 8, !tbaa !83
  %15 = load ptr, ptr %2, align 8, !tbaa !57
  %16 = getelementptr inbounds nuw %struct.file_tracker_t, ptr %15, i32 0, i32 7
  store i32 0, ptr %16, align 8, !tbaa !84
  %17 = load ptr, ptr %2, align 8, !tbaa !57
  %18 = getelementptr inbounds nuw %struct.file_tracker_t, ptr %17, i32 0, i32 9
  store i8 0, ptr %18, align 8, !tbaa !62
  %19 = load ptr, ptr %2, align 8, !tbaa !57
  %20 = getelementptr inbounds nuw %struct.file_tracker_t, ptr %19, i32 0, i32 10
  store i8 0, ptr %20, align 1, !tbaa !63
  %21 = load ptr, ptr %2, align 8, !tbaa !57
  %22 = getelementptr inbounds nuw %struct.file_tracker_t, ptr %21, i32 0, i32 11
  store i8 0, ptr %22, align 2, !tbaa !64
  %23 = load ptr, ptr %2, align 8, !tbaa !57
  %24 = getelementptr inbounds nuw %struct.file_tracker_t, ptr %23, i32 0, i32 12
  store i64 0, ptr %24, align 8, !tbaa !85
  %25 = load ptr, ptr %2, align 8, !tbaa !57
  %26 = getelementptr inbounds nuw %struct.file_tracker_t, ptr %25, i32 0, i32 13
  store i64 0, ptr %26, align 8, !tbaa !86
  %27 = load ptr, ptr %2, align 8, !tbaa !57
  %28 = getelementptr inbounds nuw %struct.file_tracker_t, ptr %27, i32 0, i32 14
  store i64 0, ptr %28, align 8, !tbaa !87
  %29 = load ptr, ptr %2, align 8, !tbaa !57
  %30 = getelementptr inbounds nuw %struct.file_tracker_t, ptr %29, i32 0, i32 15
  store i32 0, ptr %30, align 8, !tbaa !65
  %31 = load ptr, ptr %2, align 8, !tbaa !57
  %32 = getelementptr inbounds nuw %struct.file_tracker_t, ptr %31, i32 0, i32 16
  store i32 0, ptr %32, align 4, !tbaa !88
  %33 = load ptr, ptr %2, align 8, !tbaa !57
  %34 = getelementptr inbounds nuw %struct.file_tracker_t, ptr %33, i32 0, i32 17
  store i32 0, ptr %34, align 8, !tbaa !89
  %35 = load ptr, ptr %2, align 8, !tbaa !57
  %36 = getelementptr inbounds nuw %struct.file_tracker_t, ptr %35, i32 0, i32 18
  store i8 3, ptr %36, align 4, !tbaa !67
  %37 = load ptr, ptr %2, align 8, !tbaa !57
  %38 = getelementptr inbounds nuw %struct.file_tracker_t, ptr %37, i32 0, i32 19
  store ptr null, ptr %38, align 8, !tbaa !90
  %39 = load ptr, ptr %2, align 8, !tbaa !57
  %40 = getelementptr inbounds nuw %struct.file_tracker_t, ptr %39, i32 0, i32 20
  store i64 0, ptr %40, align 8, !tbaa !91
  ret void
}