; Function Attrs: mustprogress nofree norecurse nosync nounwind willreturn memory(argmem: write) uwtable
define internal void @ft_constructor(ptr noundef writeonly captures(none) initializes((144, 161), (424, 444), (456, 459), (464, 501), (504, 520)) %0) #1 {
  %2 = getelementptr inbounds nuw i8, ptr %0, i64 144
  %3 = getelementptr inbounds nuw i8, ptr %0, i64 424
  %4 = getelementptr inbounds nuw i8, ptr %0, i64 456
  store i8 0, ptr %4, align 8, !tbaa !67
  %5 = getelementptr inbounds nuw i8, ptr %0, i64 457
  store i8 0, ptr %5, align 1, !tbaa !68
  %6 = getelementptr inbounds nuw i8, ptr %0, i64 458
  store i8 0, ptr %6, align 2, !tbaa !69
  %7 = getelementptr inbounds nuw i8, ptr %0, i64 464
  %8 = getelementptr inbounds nuw i8, ptr %0, i64 500
  tail call void @llvm.memset.p0.i64(ptr noundef nonnull align 8 dereferenceable(17) %2, i8 0, i64 17, i1 false)
  tail call void @llvm.memset.p0.i64(ptr noundef nonnull align 8 dereferenceable(20) %3, i8 0, i64 20, i1 false)
  tail call void @llvm.memset.p0.i64(ptr noundef nonnull align 8 dereferenceable(36) %7, i8 0, i64 36, i1 false)
  store i8 3, ptr %8, align 4, !tbaa !72
  %9 = getelementptr inbounds nuw i8, ptr %0, i64 504
  tail call void @llvm.memset.p0.i64(ptr noundef nonnull align 8 dereferenceable(16) %9, i8 0, i64 16, i1 false)
  ret void
}